target datalayout = "e-m:e-p270:32:32-p271:32:32-p272:64:64-i64:64-i128:128-f80:128-n8:16:32:64-S128"
target triple = "x86_64-unknown-linux-gnu"

module asm ".section \22.export_symbol\22,\22a\22 ; __export_symbol_kvasprintf: ; .asciz \22\22 ; .asciz \22\22 ; .balign 8 ; .quad kvasprintf ; .previous"
module asm ".section \22.export_symbol\22,\22a\22 ; __export_symbol_kvasprintf_const: ; .asciz \22\22 ; .asciz \22\22 ; .balign 8 ; .quad kvasprintf_const ; .previous"
module asm ".section \22.export_symbol\22,\22a\22 ; __export_symbol_kasprintf: ; .asciz \22\22 ; .asciz \22\22 ; .balign 8 ; .quad kasprintf ; .previous"

%struct.__va_list_tag = type { i32, i32, ptr, ptr }

@.str = private unnamed_addr constant [62 x i8] c"different return values (%u and %u) from vsnprintf(\22%s\22, ...)\00", align 1
@.str.1 = private unnamed_addr constant [16 x i8] c"lib/kasprintf.c\00", align 1
@__UNIQUE_ID___addressable_kvasprintf148 = internal global ptr @kvasprintf, section ".discard.addressable", align 8
@.str.2 = private unnamed_addr constant [3 x i8] c"%s\00", align 1
@__UNIQUE_ID___addressable_kvasprintf_const149 = internal global ptr @kvasprintf_const, section ".discard.addressable", align 8
@__UNIQUE_ID___addressable_kasprintf150 = internal global ptr @kasprintf, section ".discard.addressable", align 8
@llvm.compiler.used = appending global [3 x ptr] [ptr @__UNIQUE_ID___addressable_kasprintf150, ptr @__UNIQUE_ID___addressable_kvasprintf148, ptr @__UNIQUE_ID___addressable_kvasprintf_const149], section "llvm.metadata"

; Function Attrs: fn_ret_thunk_extern nounwind null_pointer_is_valid
define dso_local noalias ptr @kvasprintf(i32 noundef %0, ptr noundef %1, ptr noundef %2) #0 align 16 {
  %4 = alloca [1 x %struct.__va_list_tag], align 16
  call void @llvm.lifetime.start.p0(i64 24, ptr nonnull %4) #9
  call void @llvm.memset.p0.i64(ptr noundef nonnull align 16 dereferenceable(24) %4, i8 0, i64 24, i1 false), !annotation !5
  call void @llvm.va_copy(ptr nonnull %4, ptr %2)
  %5 = call i32 @vsnprintf(ptr noundef null, i64 noundef 0, ptr noundef %1, ptr noundef nonnull %4) #9
  call void @llvm.va_end(ptr %4)
  %6 = add i32 %5, 1
  %7 = zext i32 %6 to i64
  %8 = call ptr @llvm.returnaddress(i32 0)
  %9 = ptrtoint ptr %8 to i64
  %10 = call noalias ptr @__kmalloc_node_track_caller(i64 noundef %7, i32 noundef %0, i32 noundef -1, i64 noundef %9) #10
  %11 = icmp eq ptr %10, null
  br i1 %11, label %16, label %12

12:                                               ; preds = %3
  %13 = call i32 @vsnprintf(ptr noundef nonnull %10, i64 noundef %7, ptr noundef %1, ptr noundef %2) #9
  %14 = icmp eq i32 %5, %13
  br i1 %14, label %16, label %15, !prof !6

15:                                               ; preds = %12
  call void asm sideeffect "144: nop\0A\09.pushsection .discard.instr_begin\0A\09.long 144b - .\0A\09.popsection\0A\09", "i,~{dirflag},~{fpsr},~{flags}"(i32 144) #9, !srcloc !7
  call void (ptr, ...) @__warn_printk(ptr noundef nonnull @.str, i32 noundef %5, i32 noundef %13, ptr noundef %1) #9
  call void asm sideeffect "145: nop\0A\09.pushsection .discard.instr_begin\0A\09.long 145b - .\0A\09.popsection\0A\09", "i,~{dirflag},~{fpsr},~{flags}"(i32 145) #9, !srcloc !8
  call void asm sideeffect "1:\09.byte 0x0f, 0x0b\0A.pushsection __bug_table,\22aw\22\0A2:\09.long 1b - .\09# bug_entry::bug_addr\0A\09.long ${0:c} - .\09# bug_entry::file\0A\09.word ${1:c}\09# bug_entry::line\0A\09.word ${2:c}\09# bug_entry::flags\0A\09.org 2b+${3:c}\0A.popsection\0A998:\0A\09.pushsection .discard.reachable\0A\09.long 998b\0A\09.popsection\0A\09", "i,i,i,i,~{dirflag},~{fpsr},~{flags}"(ptr nonnull @.str.1, i32 31, i32 2313, i64 12) #9, !srcloc !9
  call void asm sideeffect "146: nop\0A\09.pushsection .discard.instr_end\0A\09.long 146b - .\0A\09.popsection\0A\09", "i,~{dirflag},~{fpsr},~{flags}"(i32 146) #9, !srcloc !10
  call void asm sideeffect "147: nop\0A\09.pushsection .discard.instr_end\0A\09.long 147b - .\0A\09.popsection\0A\09", "i,~{dirflag},~{fpsr},~{flags}"(i32 147) #9, !srcloc !11
  br label %16

16:                                               ; preds = %15, %12, %3
  %17 = phi ptr [ null, %3 ], [ %10, %15 ], [ %10, %12 ]
  call void @llvm.lifetime.end.p0(i64 24, ptr nonnull %4) #9
  ret ptr %17
}

; Function Attrs: nocallback nofree nosync nounwind willreturn memory(argmem: readwrite)
declare void @llvm.lifetime.start.p0(i64 immarg, ptr nocapture) #1

; Function Attrs: nocallback nofree nounwind willreturn memory(argmem: write)
declare void @llvm.memset.p0.i64(ptr nocapture writeonly, i8, i64, i1 immarg) #2

; Function Attrs: nocallback nofree nosync nounwind willreturn
declare void @llvm.va_copy(ptr, ptr) #3

; Function Attrs: nofree nounwind null_pointer_is_valid
declare dso_local noundef i32 @vsnprintf(ptr nocapture noundef, i64 noundef, ptr nocapture noundef readonly, ptr noundef) local_unnamed_addr #4

; Function Attrs: nocallback nofree nosync nounwind willreturn
declare void @llvm.va_end(ptr) #3

; Function Attrs: null_pointer_is_valid allocsize(0)
declare dso_local noalias ptr @__kmalloc_node_track_caller(i64 noundef, i32 noundef, i32 noundef, i64 noundef) local_unnamed_addr #5

; Function Attrs: nocallback nofree nosync nounwind willreturn memory(none)
declare ptr @llvm.returnaddress(i32 immarg) #6

; Function Attrs: null_pointer_is_valid
declare dso_local void @__warn_printk(ptr noundef, ...) local_unnamed_addr #7

; Function Attrs: nocallback nofree nosync nounwind willreturn memory(argmem: readwrite)
declare void @llvm.lifetime.end.p0(i64 immarg, ptr nocapture) #1

; Function Attrs: fn_ret_thunk_extern nounwind null_pointer_is_valid
define dso_local ptr @kvasprintf_const(i32 noundef %0, ptr noundef %1, ptr noundef %2) #0 align 16 {
  %4 = tail call ptr @strchr(ptr noundef %1, i32 noundef 37) #9
  %5 = icmp eq ptr %4, null
  br i1 %5, label %6, label %8

6:                                                ; preds = %3
  %7 = tail call ptr @kstrdup_const(ptr noundef %1, i32 noundef %0) #9
  br label %30

8:                                                ; preds = %3
  %9 = tail call i32 @strcmp(ptr noundef %1, ptr noundef nonnull dereferenceable(3) @.str.2) #9
  %10 = icmp eq i32 %9, 0
  br i1 %10, label %11, label %28

11:                                               ; preds = %8
  %12 = load i32, ptr %2, align 8
  %13 = icmp ult i32 %12, 41
  br i1 %13, label %14, label %20

14:                                               ; preds = %11
  %15 = getelementptr inbounds i8, ptr %2, i64 16
  %16 = load ptr, ptr %15, align 8
  %17 = zext nneg i32 %12 to i64
  %18 = getelementptr i8, ptr %16, i64 %17
  %19 = add nuw nsw i32 %12, 8
  store i32 %19, ptr %2, align 8
  br label %24

20:                                               ; preds = %11
  %21 = getelementptr inbounds i8, ptr %2, i64 8
  %22 = load ptr, ptr %21, align 8
  %23 = getelementptr i8, ptr %22, i64 8
  store ptr %23, ptr %21, align 8
  br label %24

24:                                               ; preds = %20, %14
  %25 = phi ptr [ %18, %14 ], [ %22, %20 ]
  %26 = load ptr, ptr %25, align 8
  %27 = tail call ptr @kstrdup_const(ptr noundef %26, i32 noundef %0) #9
  br label %30

28:                                               ; preds = %8
  %29 = tail call noalias ptr @kvasprintf(i32 noundef %0, ptr noundef %1, ptr noundef %2)
  br label %30

30:                                               ; preds = %28, %24, %6
  %31 = phi ptr [ %29, %28 ], [ %27, %24 ], [ %7, %6 ]
  ret ptr %31
}

; Function Attrs: mustprogress nofree nounwind null_pointer_is_valid willreturn memory(argmem: read)
declare dso_local ptr @strchr(ptr noundef, i32 noundef) local_unnamed_addr #8

; Function Attrs: null_pointer_is_valid
declare dso_local ptr @kstrdup_const(ptr noundef, i32 noundef) local_unnamed_addr #7

; Function Attrs: mustprogress nofree nounwind null_pointer_is_valid willreturn memory(argmem: read)
declare dso_local i32 @strcmp(ptr nocapture noundef, ptr nocapture noundef) local_unnamed_addr #8

; Function Attrs: fn_ret_thunk_extern nounwind null_pointer_is_valid
define dso_local noalias ptr @kasprintf(i32 noundef %0, ptr noundef %1, ...) #0 align 16 {
  %3 = alloca [1 x %struct.__va_list_tag], align 16
  call void @llvm.lifetime.start.p0(i64 24, ptr nonnull %3) #9
  call void @llvm.memset.p0.i64(ptr noundef nonnull align 16 dereferenceable(24) %3, i8 0, i64 24, i1 false), !annotation !5
  call void @llvm.va_start(ptr nonnull %3)
  %4 = call noalias ptr @kvasprintf(i32 noundef %0, ptr noundef %1, ptr noundef nonnull %3)
  call void @llvm.va_end(ptr %3)
  call void @llvm.lifetime.end.p0(i64 24, ptr nonnull %3) #9
  ret ptr %4
}

; Function Attrs: nocallback nofree nosync nounwind willreturn
declare void @llvm.va_start(ptr) #3


!llvm.module.flags = !{!0, !1, !2, !3, !4}

!0 = !{i32 1, !"wchar_size", i32 2}
!1 = !{i32 8, !"cf-protection-branch", i32 1}
!2 = !{i32 4, !"function_return_thunk_extern", i32 1}
!3 = !{i32 4, !"indirect_branch_cs_prefix", i32 1}
!4 = !{i32 4, !"SkipRaxSetup", i32 1}
!5 = !{!"auto-init"}
!6 = !{!"branch_weights", i32 2000, i32 1}
!7 = !{i64 2151438611, i64 2151438420, i64 2151438472, i64 2151438518, i64 2151438546}
!8 = !{i64 2151439169, i64 2151438978, i64 2151439030, i64 2151439076, i64 2151439104}
!9 = !{i64 2151439243, i64 2151439272, i64 2151439318, i64 2151439376, i64 2151439430, i64 2151439484, i64 2151439539, i64 2151439570, i64 2151439878, i64 2151439884, i64 2151439931, i64 2151439954, i64 2151439980}
!10 = !{i64 2151440427, i64 2151440238, i64 2151440288, i64 2151440334, i64 2151440362}
!11 = !{i64 2151440733, i64 2151440544, i64 2151440594, i64 2151440640, i64 2151440668}
